(dp1
S'xi'
p2
(dp3
cnumpy.core.multiarray
scalar
p4
(cnumpy
dtype
p5
(S'S5'
I0
I1
tRp6
(I3
S'|'
NNNI5
I1
I0
tbS'logM1'
tRp7
(lp8
F-1.91976981
aF-11.7173251
asg4
(g5
(S'S4'
I0
I1
tRp9
(I3
S'|'
NNNI4
I1
I0
tbS'Neff'
tRp10
(lp11
F1.49655743
aF-9.9457143600000002
asg4
(g5
(S'S5'
I0
I1
tRp12
(I3
S'|'
NNNI5
I1
I0
tbS'logM0'
tRp13
(lp14
F1.1708706900000001
aF6.5010375900000001
asg4
(g5
(S'S10'
I0
I1
tRp15
(I3
S'|'
NNNI10
I1
I0
tbS'sigma_logM'
tRp16
(lp17
F0.97997248999999997
aF9.7012502099999995
asg4
(g5
(S'S2'
I0
I1
tRp18
(I3
S'|'
NNNI2
I1
I0
tbS'H0'
tRp19
(lp20
F-4.7277317099999996
aF-1.3358240800000001
asg4
(g5
(S'S6'
I0
I1
tRp21
(I3
S'|'
NNNI6
I1
I0
tbS'ln10As'
tRp22
(lp23
F0.15083458999999999
aF4.7841315800000004
asg4
(g5
(S'S5'
I0
I1
tRp24
(I3
S'|'
NNNI5
I1
I0
tbS'alpha'
tRp25
(lp26
F7.1770969899999999
aF-0.10738552
asS'bias'
p27
(lp28
F5.3032409600000001
asg4
(g5
(S'S5'
I0
I1
tRp29
(I3
S'|'
NNNI5
I1
I0
tbS'omch2'
tRp30
(lp31
F-2.4824670800000002
aF0.50210416000000002
asg4
(g5
(S'S2'
I0
I1
tRp32
(I3
S'|'
NNNI2
I1
I0
tbS'w0'
tRp33
(lp34
F10.0699553
aF12.01525603
asS'amp'
p35
(lp36
F-2.9256517299999998
aF-10.26944746
asg4
(g5
(S'S2'
I0
I1
tRp37
(I3
S'|'
NNNI2
I1
I0
tbS'ns'
tRp38
(lp39
F-8.6924808900000006
aF5.8997576900000004
asg4
(g5
(S'S5'
I0
I1
tRp40
(I3
S'|'
NNNI5
I1
I0
tbS'ombh2'
tRp41
(lp42
F-4.4242976599999997
aF10.378651209999999
ass.